; Function Attrs: mustprogress nofree norecurse nosync nounwind willreturn memory(read, inaccessiblemem: none) uwtable
define noundef i32 @_ZNK19OpenColorIO_v2_4dev9Processor16getNumTransformsEv(ptr nocapture noundef nonnull readonly align 8 dereferenceable(8) %this) local_unnamed_addr #5 align 2 {
entry:
  %0 = load ptr, ptr %this, align 8
  %m_ops.i = getelementptr inbounds i8, ptr %0, i64 16
  %_M_finish.i.i.i = getelementptr inbounds i8, ptr %0, i64 24
  %1 = load ptr, ptr %_M_finish.i.i.i, align 8
  %2 = load ptr, ptr %m_ops.i, align 8
  %sub.ptr.lhs.cast.i.i.i = ptrtoint ptr %1 to i64
  %sub.ptr.rhs.cast.i.i.i = ptrtoint ptr %2 to i64
  %sub.ptr.sub.i.i.i = sub i64 %sub.ptr.lhs.cast.i.i.i, %sub.ptr.rhs.cast.i.i.i
  %sub.ptr.div.i.i.i = lshr exact i64 %sub.ptr.sub.i.i.i, 4
  %conv.i = trunc i64 %sub.ptr.div.i.i.i to i32
  ret i32 %conv.i
}